target datalayout = "e-m:e-p270:32:32-p271:32:32-p272:64:64-i64:64-i128:128-f80:128-n8:16:32:64-S128"
target triple = "x86_64-pc-linux-gnu"

%struct.nghttp2_hd_nv = type { ptr, ptr, i32, i8 }
%struct.nghttp2_nv = type { ptr, ptr, i64, i64, i8 }
%struct.nghttp2_rcbuf = type { ptr, ptr, ptr, i64, i32 }

; Function Attrs: nounwind uwtable
define i64 @nghttp2_hd_inflate_hd3(ptr noundef %0, ptr noundef %1, ptr noundef %2, ptr noundef %3, i64 noundef %4, i32 noundef %5) #0 {
  %7 = alloca i64, align 8
  %8 = alloca ptr, align 8
  %9 = alloca ptr, align 8
  %10 = alloca ptr, align 8
  %11 = alloca ptr, align 8
  %12 = alloca i64, align 8
  %13 = alloca i32, align 4
  %14 = alloca i64, align 8
  %15 = alloca %struct.nghttp2_hd_nv, align 8
  %16 = alloca i32, align 4
  store ptr %0, ptr %8, align 8, !tbaa !53
  store ptr %1, ptr %9, align 8, !tbaa !8
  store ptr %2, ptr %10, align 8, !tbaa !101
  store ptr %3, ptr %11, align 8, !tbaa !86
  store i64 %4, ptr %12, align 8, !tbaa !37
  store i32 %5, ptr %13, align 4, !tbaa !12
  call void @llvm.lifetime.start.p0(i64 8, ptr %14) #8
  call void @llvm.lifetime.start.p0(i64 24, ptr %15) #8
  %17 = load ptr, ptr %8, align 8, !tbaa !53
  %18 = load ptr, ptr %10, align 8, !tbaa !101
  %19 = load ptr, ptr %11, align 8, !tbaa !86
  %20 = load i64, ptr %12, align 8, !tbaa !37
  %21 = load i32, ptr %13, align 4, !tbaa !12
  %22 = call i64 @nghttp2_hd_inflate_hd_nv(ptr noundef %17, ptr noundef %15, ptr noundef %18, ptr noundef %19, i64 noundef %20, i32 noundef %21)
  store i64 %22, ptr %14, align 8, !tbaa !37
  %23 = load i64, ptr %14, align 8, !tbaa !37
  %24 = icmp slt i64 %23, 0
  br i1 %24, label %25, label %27

25:                                               ; preds = %6
  %26 = load i64, ptr %14, align 8, !tbaa !37
  store i64 %26, ptr %7, align 8
  store i32 1, ptr %16, align 4
  br label %63

27:                                               ; preds = %6
  %28 = load ptr, ptr %10, align 8, !tbaa !101
  %29 = load i32, ptr %28, align 4, !tbaa !12
  %30 = and i32 %29, 2
  %31 = icmp ne i32 %30, 0
  br i1 %31, label %32, label %61

32:                                               ; preds = %27
  %33 = getelementptr inbounds nuw %struct.nghttp2_hd_nv, ptr %15, i32 0, i32 0
  %34 = load ptr, ptr %33, align 8, !tbaa !15
  %35 = getelementptr inbounds nuw %struct.nghttp2_rcbuf, ptr %34, i32 0, i32 2
  %36 = load ptr, ptr %35, align 8, !tbaa !17
  %37 = load ptr, ptr %9, align 8, !tbaa !8
  %38 = getelementptr inbounds nuw %struct.nghttp2_nv, ptr %37, i32 0, i32 0
  store ptr %36, ptr %38, align 8, !tbaa !88
  %39 = getelementptr inbounds nuw %struct.nghttp2_hd_nv, ptr %15, i32 0, i32 0
  %40 = load ptr, ptr %39, align 8, !tbaa !15
  %41 = getelementptr inbounds nuw %struct.nghttp2_rcbuf, ptr %40, i32 0, i32 3
  %42 = load i64, ptr %41, align 8, !tbaa !24
  %43 = load ptr, ptr %9, align 8, !tbaa !8
  %44 = getelementptr inbounds nuw %struct.nghttp2_nv, ptr %43, i32 0, i32 2
  store i64 %42, ptr %44, align 8, !tbaa !89
  %45 = getelementptr inbounds nuw %struct.nghttp2_hd_nv, ptr %15, i32 0, i32 1
  %46 = load ptr, ptr %45, align 8, !tbaa !26
  %47 = getelementptr inbounds nuw %struct.nghttp2_rcbuf, ptr %46, i32 0, i32 2
  %48 = load ptr, ptr %47, align 8, !tbaa !17
  %49 = load ptr, ptr %9, align 8, !tbaa !8
  %50 = getelementptr inbounds nuw %struct.nghttp2_nv, ptr %49, i32 0, i32 1
  store ptr %48, ptr %50, align 8, !tbaa !97
  %51 = getelementptr inbounds nuw %struct.nghttp2_hd_nv, ptr %15, i32 0, i32 1
  %52 = load ptr, ptr %51, align 8, !tbaa !26
  %53 = getelementptr inbounds nuw %struct.nghttp2_rcbuf, ptr %52, i32 0, i32 3
  %54 = load i64, ptr %53, align 8, !tbaa !24
  %55 = load ptr, ptr %9, align 8, !tbaa !8
  %56 = getelementptr inbounds nuw %struct.nghttp2_nv, ptr %55, i32 0, i32 3
  store i64 %54, ptr %56, align 8, !tbaa !91
  %57 = getelementptr inbounds nuw %struct.nghttp2_hd_nv, ptr %15, i32 0, i32 3
  %58 = load i8, ptr %57, align 4, !tbaa !29
  %59 = load ptr, ptr %9, align 8, !tbaa !8
  %60 = getelementptr inbounds nuw %struct.nghttp2_nv, ptr %59, i32 0, i32 4
  store i8 %58, ptr %60, align 8, !tbaa !92
  br label %61

61:                                               ; preds = %32, %27
  %62 = load i64, ptr %14, align 8, !tbaa !37
  store i64 %62, ptr %7, align 8
  store i32 1, ptr %16, align 4
  br label %63

63:                                               ; preds = %61, %25
  call void @llvm.lifetime.end.p0(i64 24, ptr %15) #8
  call void @llvm.lifetime.end.p0(i64 8, ptr %14) #8
  %64 = load i64, ptr %7, align 8
  ret i64 %64
}

; Function Attrs: nounwind uwtable
define i64 @nghttp2_hd_inflate_hd2(ptr noundef %0, ptr noundef %1, ptr noundef %2, ptr noundef %3, i64 noundef %4, i32 noundef %5) #0 {
  %7 = alloca ptr, align 8
  %8 = alloca ptr, align 8
  %9 = alloca ptr, align 8
  %10 = alloca ptr, align 8
  %11 = alloca i64, align 8
  %12 = alloca i32, align 4
  store ptr %0, ptr %7, align 8, !tbaa !53
  store ptr %1, ptr %8, align 8, !tbaa !8
  store ptr %2, ptr %9, align 8, !tbaa !101
  store ptr %3, ptr %10, align 8, !tbaa !86
  store i64 %4, ptr %11, align 8, !tbaa !37
  store i32 %5, ptr %12, align 4, !tbaa !12
  %13 = load ptr, ptr %7, align 8, !tbaa !53
  %14 = load ptr, ptr %8, align 8, !tbaa !8
  %15 = load ptr, ptr %9, align 8, !tbaa !101
  %16 = load ptr, ptr %10, align 8, !tbaa !86
  %17 = load i64, ptr %11, align 8, !tbaa !37
  %18 = load i32, ptr %12, align 4, !tbaa !12
  %19 = call i64 @nghttp2_hd_inflate_hd3(ptr noundef %13, ptr noundef %14, ptr noundef %15, ptr noundef %16, i64 noundef %17, i32 noundef %18)
  ret i64 %19
}